(dp0
S'global_data'
p1
(dp2
S'control'
p3
(dp4
S'route'
p5
V192.0.2.1
p6
sS'mask'
p7
I24
sS'ec2'
p8
V192.0.2.1
p9
ssS'major'
p10
I1
sS'management'
p11
(dp12
S'start'
p13
V172.20.0.10
p14
sS'cidr'
p15
V172.20.0.0/24
p16
sS'vlan'
p17
I6
sS'end'
p18
V172.20.0.250
p19
ssS'dns2'
p20
V8.8.4.4
p21
sS'dns1'
p22
V8.8.8.8
p23
sS'storage'
p24
(dp25
g13
V172.18.0.10
p26
sg15
V172.18.0.0/24
p27
sg17
I3
sg18
V172.18.0.250
p28
ssS'auto_routes'
p29
I01
sS'bond_options'
p30
V
p31
sS'version'
p32
I1
sS'external'
p33
(dp34
S'bridge'
p35
V''
p36
sg18
V10.0.0.50
p37
sg17
I1
sg13
V10.0.0.10
p38
sg15
V10.0.0.0/24
p39
sS'gateway'
p40
V10.0.0.1
p41
ssS'internal_api'
p42
(dp43
g13
V172.17.0.10
p44
sg15
V172.17.0.0/24
p45
sg17
I2
sg18
V172.17.0.250
p46
ssS'ipv6'
p47
I00
sS'storage_mgmt'
p48
(dp49
g13
V172.19.0.10
p50
sg15
V172.19.0.0/24
p51
sg17
I4
sg18
V172.19.0.250
p52
ssS'minor'
p53
I2
sS'tenant'
p54
(dp55
g13
V172.16.0.10
p56
sg15
V172.16.0.0/24
p57
sg17
I5
sg18
V172.16.0.250
p58
sssS'data'
p59
(dp60
S'cinder-storage.yaml'
p61
(lp62
sS'ceph-storage.yaml'
p63
(lp64
(dp65
Vaddresses
p66
(lp67
sVnetwork
p68
VControlPlane
p69
sVprimary
p70
I01
sVmtu
p71
I1350
sS'members'
p72
(lp73
sVroutes
p74
(lp75
sVuse_dhcp
p76
I00
sVtype
p77
Vinterface
p78
sVname
p79
Vnic1
p80
sa(dp81
Vaddresses
p82
(lp83
sVnetwork
p84
VStorage
p85
sVprimary
p86
I01
sVmtu
p87
I1350
sg72
(lp88
sVroutes
p89
(lp90
sVuse_dhcp
p91
I00
sVtype
p92
Vinterface
p93
sVname
p94
Vnic4
p95
sa(dp96
Vaddresses
p97
(lp98
sVnetwork
p99
VStorageMgmt
p100
sVprimary
p101
I01
sVmtu
p102
I1350
sg72
(lp103
sVroutes
p104
(lp105
sVuse_dhcp
p106
I00
sVtype
p107
Vinterface
p108
sVname
p109
Vnic5
p110
sasS'controller.yaml'
p111
(lp112
(dp113
Vaddresses
p114
(lp115
sVnetwork
p116
VControlPlane
p117
sVprimary
p118
I01
sVmtu
p119
I1350
sg72
(lp120
sVroutes
p121
(lp122
sVuse_dhcp
p123
I00
sVtype
p124
Vinterface
p125
sVname
p126
Vnic1
p127
sa(dp128
Vdns_servers
p129
V{get_param: DnsServers}
p130
sVaddresses
p131
(lp132
sVnetwork
p133
VExternal
p134
sVmtu
p135
I-1
sg72
(lp136
(dp137
Vaddresses
p138
(lp139
sVnetwork
p140
VNone
p141
sVprimary
p142
I01
sVmtu
p143
I1350
sg72
(lp144
sVroutes
p145
(lp146
sVuse_dhcp
p147
I00
sVtype
p148
Vinterface
p149
sVname
p150
Vnic2
p151
sasVroutes
p152
(lp153
sVuse_dhcp
p154
I00
sVtype
p155
Vovs_bridge
p156
sVname
p157
Vbr-ex
p158
sa(dp159
Vaddresses
p160
(lp161
sVnetwork
p162
VInternalApi
p163
sVprimary
p164
I01
sVmtu
p165
I1350
sg72
(lp166
sVroutes
p167
(lp168
sVuse_dhcp
p169
I00
sVtype
p170
Vinterface
p171
sVname
p172
Vnic3
p173
sa(dp174
Vaddresses
p175
(lp176
sVnetwork
p177
VStorage
p178
sVprimary
p179
I01
sVmtu
p180
I1350
sg72
(lp181
sVroutes
p182
(lp183
sVuse_dhcp
p184
I00
sVtype
p185
Vinterface
p186
sVname
p187
Vnic4
p188
sa(dp189
Vaddresses
p190
(lp191
sVnetwork
p192
VStorageMgmt
p193
sVprimary
p194
I01
sVmtu
p195
I1350
sg72
(lp196
sVroutes
p197
(lp198
sVuse_dhcp
p199
I00
sVtype
p200
Vinterface
p201
sVname
p202
Vnic5
p203
sa(dp204
Vdns_servers
p205
V{get_param: DnsServers}
p206
sVaddresses
p207
(lp208
sVnetwork
p209
VTenant
p210
sVmtu
p211
I-1
sg72
(lp212
(dp213
Vaddresses
p214
(lp215
sVnetwork
p216
VNone
p217
sVprimary
p218
I01
sVmtu
p219
I1350
sg72
(lp220
sVroutes
p221
(lp222
sVuse_dhcp
p223
I00
sVtype
p224
Vinterface
p225
sVname
p226
Vnic6
p227
sasVroutes
p228
(lp229
sVuse_dhcp
p230
I00
sVtype
p231
Vovs_bridge
p232
sVname
p233
Vbr-tenant
p234
sasS'swift-storage.yaml'
p235
(lp236
sS'compute.yaml'
p237
(lp238
(dp239
Vaddresses
p240
(lp241
sVnetwork
p242
VControlPlane
p243
sVprimary
p244
I01
sVmtu
p245
I1350
sg72
(lp246
sVroutes
p247
(lp248
sVuse_dhcp
p249
I00
sVtype
p250
Vinterface
p251
sVname
p252
Vnic1
p253
sa(dp254
Vaddresses
p255
(lp256
sVnetwork
p257
VInternalApi
p258
sVprimary
p259
I01
sVmtu
p260
I1350
sg72
(lp261
sVroutes
p262
(lp263
sVuse_dhcp
p264
I00
sVtype
p265
Vinterface
p266
sVname
p267
Vnic3
p268
sa(dp269
Vaddresses
p270
(lp271
sVnetwork
p272
VStorage
p273
sVprimary
p274
I01
sVmtu
p275
I1350
sg72
(lp276
sVroutes
p277
(lp278
sVuse_dhcp
p279
I00
sVtype
p280
Vinterface
p281
sVname
p282
Vnic4
p283
sa(dp284
Vdns_servers
p285
V{get_param: DnsServers}
p286
sVaddresses
p287
(lp288
sVnetwork
p289
VTenant
p290
sVmtu
p291
I-1
sg72
(lp292
(dp293
Vaddresses
p294
(lp295
sVnetwork
p296
VNone
p297
sVprimary
p298
I01
sVmtu
p299
I1350
sg72
(lp300
sVroutes
p301
(lp302
sVuse_dhcp
p303
I00
sVtype
p304
Vinterface
p305
sVname
p306
Vnic6
p307
sasVroutes
p308
(lp309
sVuse_dhcp
p310
I00
sVtype
p311
Vovs_bridge
p312
sVname
p313
Vbr-tenant
p314
sass.