(dp0
S'global_data'
p1
(dp2
S'control'
p3
(dp4
S'route'
p5
V192.0.2.1
p6
sS'mask'
p7
I24
sS'ec2'
p8
V192.0.2.1
p9
ssS'major'
p10
I1
sS'management'
p11
(dp12
S'start'
p13
V172.20.0.10
p14
sS'cidr'
p15
V172.20.0.0/24
p16
sS'vlan'
p17
I6
sS'end'
p18
V172.20.0.250
p19
ssS'dns2'
p20
V8.8.4.4
p21
sS'dns1'
p22
V8.8.8.8
p23
sS'storage'
p24
(dp25
g13
V172.18.0.10
p26
sg15
V172.18.0.0/24
p27
sg17
I3
sg18
V172.18.0.250
p28
ssS'bond_options'
p29
V
p30
sS'external'
p31
(dp32
S'bridge'
p33
V''
p34
sg18
V10.0.0.50
p35
sg17
I1
sg13
V10.0.0.10
p36
sg15
V10.0.0.0/24
p37
sS'gateway'
p38
V10.0.0.1
p39
ssS'internal_api'
p40
(dp41
g13
V172.17.0.10
p42
sg15
V172.17.0.0/24
p43
sg17
I2
sg18
V172.17.0.250
p44
ssS'storage_mgmt'
p45
(dp46
g13
V172.19.0.10
p47
sg15
V172.19.0.0/24
p48
sg17
I4
sg18
V172.19.0.250
p49
ssS'minor'
p50
I2
sS'tenant'
p51
(dp52
g13
V172.16.0.10
p53
sg15
V172.16.0.0/24
p54
sg17
I5
sg18
V172.16.0.250
p55
sssS'data'
p56
(dp57
S'cinder-storage.yaml'
p58
(lp59
sS'ceph-storage.yaml'
p60
(lp61
sS'controller.yaml'
p62
(lp63
(dp64
Vaddresses
p65
(lp66
sVnetwork
p67
VControlPlane
p68
sVprimary
p69
I01
sVmtu
p70
I1400
sS'members'
p71
(lp72
sVroutes
p73
(lp74
sVuse_dhcp
p75
I00
sVtype
p76
Vinterface
p77
sVname
p78
Vnic1
p79
sa(dp80
Vdns_servers
p81
V{get_param: DnsServers}
p82
sVaddresses
p83
(lp84
sVnetwork
p85
VExternal
p86
sVmtu
p87
I-1
sg71
(lp88
(dp89
Vaddresses
p90
(lp91
sVnetwork
p92
VNone
p93
sVprimary
p94
I01
sVmtu
p95
I1400
sg71
(lp96
sVroutes
p97
(lp98
sVuse_dhcp
p99
I00
sVtype
p100
Vinterface
p101
sVname
p102
Vnic2
p103
sasVroutes
p104
(lp105
sVuse_dhcp
p106
I00
sVtype
p107
Vovs_bridge
p108
sVname
p109
Vbr-ex
p110
sa(dp111
Vaddresses
p112
(lp113
sVnetwork
p114
VInternalApi
p115
sVprimary
p116
I01
sVmtu
p117
I1400
sg71
(lp118
sVroutes
p119
(lp120
sVuse_dhcp
p121
I00
sVtype
p122
Vinterface
p123
sVname
p124
Vnic3
p125
sa(dp126
Vaddresses
p127
(lp128
sVnetwork
p129
VStorage
p130
sVprimary
p131
I01
sVmtu
p132
I1400
sg71
(lp133
sVroutes
p134
(lp135
sVuse_dhcp
p136
I00
sVtype
p137
Vinterface
p138
sVname
p139
Vnic4
p140
sa(dp141
Vaddresses
p142
(lp143
sVnetwork
p144
VStorageMgmt
p145
sVprimary
p146
I01
sVmtu
p147
I1400
sg71
(lp148
sVroutes
p149
(lp150
sVuse_dhcp
p151
I00
sVtype
p152
Vinterface
p153
sVname
p154
Vnic5
p155
sa(dp156
Vdns_servers
p157
V{get_param: DnsServers}
p158
sVaddresses
p159
(lp160
sVnetwork
p161
VTenant
p162
sVmtu
p163
I-1
sg71
(lp164
(dp165
Vaddresses
p166
(lp167
sVnetwork
p168
VNone
p169
sVprimary
p170
I01
sVmtu
p171
I1400
sg71
(lp172
sVroutes
p173
(lp174
sVuse_dhcp
p175
I00
sVtype
p176
Vinterface
p177
sVname
p178
Vnic6
p179
sasVroutes
p180
(lp181
sVuse_dhcp
p182
I00
sVtype
p183
Vovs_bridge
p184
sVname
p185
Vbr-tenant
p186
sasS'swift-storage.yaml'
p187
(lp188
sS'compute.yaml'
p189
(lp190
(dp191
Vaddresses
p192
(lp193
sVnetwork
p194
VControlPlane
p195
sVprimary
p196
I01
sVmtu
p197
I1400
sg71
(lp198
sVroutes
p199
(lp200
sVuse_dhcp
p201
I00
sVtype
p202
Vinterface
p203
sVname
p204
Vnic1
p205
sa(dp206
Vaddresses
p207
(lp208
sVnetwork
p209
VInternalApi
p210
sVprimary
p211
I01
sVmtu
p212
I1400
sg71
(lp213
sVroutes
p214
(lp215
sVuse_dhcp
p216
I00
sVtype
p217
Vinterface
p218
sVname
p219
Vnic3
p220
sa(dp221
Vaddresses
p222
(lp223
sVnetwork
p224
VStorage
p225
sVprimary
p226
I01
sVmtu
p227
I1400
sg71
(lp228
sVroutes
p229
(lp230
sVuse_dhcp
p231
I00
sVtype
p232
Vinterface
p233
sVname
p234
Vnic4
p235
sa(dp236
Vdns_servers
p237
V{get_param: DnsServers}
p238
sVaddresses
p239
(lp240
sVnetwork
p241
VTenant
p242
sVmtu
p243
I1400
sg71
(lp244
(dp245
Vaddresses
p246
(lp247
sVnetwork
p248
VNone
p249
sVprimary
p250
I01
sVmtu
p251
I-1
sg71
(lp252
sVroutes
p253
(lp254
sVuse_dhcp
p255
I00
sVtype
p256
Vinterface
p257
sVname
p258
Vnic6
p259
sasVroutes
p260
(lp261
sVuse_dhcp
p262
I00
sVtype
p263
Vovs_bridge
p264
sVname
p265
Vbr-tenant
p266
sass.